; Function Attrs: mustprogress optsize uwtable
define internal void @_ZZL28nanobind_init_test_eigen_extRN8nanobind7module_EEN4Base11returnVecXdEv(ptr dead_on_unwind noalias nonnull writable sret(%"class.Eigen::Matrix.1662") align 8 initializes((0, 16)) %0, ptr nonnull readnone align 8 captures(none) %1) unnamed_addr #0 align 2 personality ptr @__gxx_personality_v0 {
  tail call void @llvm.memset.p0.i64(ptr noundef nonnull align 8 dereferenceable(16) %0, i8 0, i64 16, i1 false)
  invoke void @_ZN5Eigen15PlainObjectBaseINS_6MatrixIdLin1ELi1ELi0ELin1ELi1EEEE6resizeEll(ptr noundef nonnull align 8 dereferenceable(16) %0, i64 noundef 1, i64 noundef 2) #31
          to label %_ZN5Eigen6MatrixIdLin1ELi1ELi0ELin1ELi1EEC2IiiEERKT_RKT0_.exit unwind label %3

3:                                                ; preds = %2
  %4 = landingpad { ptr, i32 }
          cleanup
  %5 = load ptr, ptr %0, align 8, !tbaa !1058
  tail call void @free(ptr noundef %5) #33
  resume { ptr, i32 } %4

_ZN5Eigen6MatrixIdLin1ELi1ELi0ELin1ELi1EEC2IiiEERKT_RKT0_.exit: ; preds = %2
  ret void
}